target datalayout = "e-m:e-p270:32:32-p271:32:32-p272:64:64-i64:64-i128:128-f80:128-n8:16:32:64-S128"
target triple = "x86_64-pc-linux-gnu"

%struct.Fra_Man_t_ = type { ptr, ptr, ptr, i32, ptr, i32, ptr, ptr, ptr, i32, ptr, ptr, ptr, ptr, i32, ptr, i64, i64, ptr, ptr, i32, ptr, i32, i32, i32, i32, i32, i32, i32, i32, i32, i32, i32, i32, i32, i32, i32, i32, i32, i32, i32, i64, i64, i64, i64, i64, i64, i64, i64, i64, i64, i64 }
%struct.Fra_Par_t_ = type { i32, double, i32, i32, double, double, i32, i32, i32, i32, i32, i32, i32, i32, i32, i32, i32, i32, i32, i32, i32, i32, i32, i32, i32 }
%struct.Aig_Man_t_ = type { ptr, ptr, ptr, ptr, ptr, ptr, ptr, %struct.Aig_Obj_t_, i32, i32, i32, i32, i32, i32, [7 x i32], i32, ptr, i32, ptr, i32, ptr, i32, i32, i32, ptr, i32, i32, i32, i32, i32, ptr, ptr, i32, ptr, ptr, i32, ptr, ptr, i32, i32, i32, ptr, ptr, ptr, ptr, ptr, ptr, ptr, ptr, ptr, ptr, ptr, ptr, ptr, ptr, i32, ptr, ptr, ptr, ptr, i32, i64, i64, i64, ptr, ptr }
%struct.Aig_Obj_t_ = type { %union.anon, ptr, ptr, i64, i32, i32, %union.anon.0 }
%union.anon = type { ptr }
%union.anon.0 = type { ptr }
%struct.Vec_Ptr_t_ = type { i32, i32, ptr }
%struct.timespec = type { i64, i64 }

; Function Attrs: inlinehint nounwind uwtable
define internal ptr @Aig_ObjChild0(ptr noundef %0) #3 {
  %2 = alloca ptr, align 8
  store ptr %0, ptr %2, align 8, !tbaa !42
  %3 = load ptr, ptr %2, align 8, !tbaa !42
  %4 = getelementptr inbounds nuw %struct.Aig_Obj_t_, ptr %3, i32 0, i32 1
  %5 = load ptr, ptr %4, align 8, !tbaa !58
  ret ptr %5
}

; Function Attrs: inlinehint nounwind uwtable
define internal ptr @Aig_ManCo(ptr noundef %0, i32 noundef %1) #3 {
  %3 = alloca ptr, align 8
  %4 = alloca i32, align 4
  store ptr %0, ptr %3, align 8, !tbaa !24
  store i32 %1, ptr %4, align 4, !tbaa !26
  %5 = load ptr, ptr %3, align 8, !tbaa !24
  %6 = getelementptr inbounds nuw %struct.Aig_Man_t_, ptr %5, i32 0, i32 3
  %7 = load ptr, ptr %6, align 8, !tbaa !57
  %8 = load i32, ptr %4, align 4, !tbaa !26
  %9 = call ptr @Vec_PtrEntry(ptr noundef %7, i32 noundef %8)
  ret ptr %9
}

; Function Attrs: inlinehint nounwind uwtable
define internal i32 @Vec_PtrSize(ptr noundef %0) #3 {
  %2 = alloca ptr, align 8
  store ptr %0, ptr %2, align 8, !tbaa !52
  %3 = load ptr, ptr %2, align 8, !tbaa !52
  %4 = getelementptr inbounds nuw %struct.Vec_Ptr_t_, ptr %3, i32 0, i32 1
  %5 = load i32, ptr %4, align 4, !tbaa !56
  ret i32 %5
}

; Function Attrs: inlinehint nounwind uwtable
define internal ptr @Aig_ManCi(ptr noundef %0, i32 noundef %1) #3 {
  %3 = alloca ptr, align 8
  %4 = alloca i32, align 4
  store ptr %0, ptr %3, align 8, !tbaa !24
  store i32 %1, ptr %4, align 4, !tbaa !26
  %5 = load ptr, ptr %3, align 8, !tbaa !24
  %6 = getelementptr inbounds nuw %struct.Aig_Man_t_, ptr %5, i32 0, i32 2
  %7 = load ptr, ptr %6, align 8, !tbaa !34
  %8 = load i32, ptr %4, align 4, !tbaa !26
  %9 = call ptr @Vec_PtrEntry(ptr noundef %7, i32 noundef %8)
  ret ptr %9
}

; Function Attrs: inlinehint nounwind uwtable
define internal ptr @Vec_PtrEntry(ptr noundef %0, i32 noundef %1) #3 {
  %3 = alloca ptr, align 8
  %4 = alloca i32, align 4
  store ptr %0, ptr %3, align 8, !tbaa !52
  store i32 %1, ptr %4, align 4, !tbaa !26
  %5 = load ptr, ptr %3, align 8, !tbaa !52
  %6 = getelementptr inbounds nuw %struct.Vec_Ptr_t_, ptr %5, i32 0, i32 2
  %7 = load ptr, ptr %6, align 8, !tbaa !53
  %8 = load i32, ptr %4, align 4, !tbaa !26
  %9 = sext i32 %8 to i64
  %10 = getelementptr inbounds ptr, ptr %7, i64 %9
  %11 = load ptr, ptr %10, align 8, !tbaa !55
  ret ptr %11
}

; Function Attrs: inlinehint nounwind uwtable
define internal void @Fra_ObjSetFraig(ptr noundef %0, i32 noundef %1, ptr noundef %2) #3 {
  %4 = alloca ptr, align 8
  %5 = alloca i32, align 4
  %6 = alloca ptr, align 8
  store ptr %0, ptr %4, align 8, !tbaa !42
  store i32 %1, ptr %5, align 4, !tbaa !26
  store ptr %2, ptr %6, align 8, !tbaa !42
  %7 = load ptr, ptr %6, align 8, !tbaa !42
  %8 = load ptr, ptr %4, align 8, !tbaa !42
  %9 = getelementptr inbounds nuw %struct.Aig_Obj_t_, ptr %8, i32 0, i32 6
  %10 = load ptr, ptr %9, align 8, !tbaa !49
  %11 = getelementptr inbounds nuw %struct.Fra_Man_t_, ptr %10, i32 0, i32 4
  %12 = load ptr, ptr %11, align 8, !tbaa !27
  %13 = load ptr, ptr %4, align 8, !tbaa !42
  %14 = getelementptr inbounds nuw %struct.Aig_Obj_t_, ptr %13, i32 0, i32 6
  %15 = load ptr, ptr %14, align 8, !tbaa !49
  %16 = getelementptr inbounds nuw %struct.Fra_Man_t_, ptr %15, i32 0, i32 3
  %17 = load i32, ptr %16, align 8, !tbaa !29
  %18 = load ptr, ptr %4, align 8, !tbaa !42
  %19 = getelementptr inbounds nuw %struct.Aig_Obj_t_, ptr %18, i32 0, i32 5
  %20 = load i32, ptr %19, align 4, !tbaa !50
  %21 = mul nsw i32 %17, %20
  %22 = load i32, ptr %5, align 4, !tbaa !26
  %23 = add nsw i32 %21, %22
  %24 = sext i32 %23 to i64
  %25 = getelementptr inbounds ptr, ptr %12, i64 %24
  store ptr %7, ptr %25, align 8, !tbaa !42
  ret void
}

; Function Attrs: inlinehint nounwind uwtable
define internal ptr @Aig_ManConst1(ptr noundef %0) #3 {
  %2 = alloca ptr, align 8
  store ptr %0, ptr %2, align 8, !tbaa !24
  %3 = load ptr, ptr %2, align 8, !tbaa !24
  %4 = getelementptr inbounds nuw %struct.Aig_Man_t_, ptr %3, i32 0, i32 6
  %5 = load ptr, ptr %4, align 8, !tbaa !51
  ret ptr %5
}

; Function Attrs: inlinehint nounwind uwtable
define internal i32 @Aig_ManRegNum(ptr noundef %0) #3 {
  %2 = alloca ptr, align 8
  store ptr %0, ptr %2, align 8, !tbaa !24
  %3 = load ptr, ptr %2, align 8, !tbaa !24
  %4 = getelementptr inbounds nuw %struct.Aig_Man_t_, ptr %3, i32 0, i32 8
  %5 = load i32, ptr %4, align 8, !tbaa !48
  ret i32 %5
}

; Function Attrs: inlinehint nounwind uwtable
define internal i32 @Aig_ManCiNum(ptr noundef %0) #3 {
  %2 = alloca ptr, align 8
  store ptr %0, ptr %2, align 8, !tbaa !24
  %3 = load ptr, ptr %2, align 8, !tbaa !24
  %4 = getelementptr inbounds nuw %struct.Aig_Man_t_, ptr %3, i32 0, i32 14
  %5 = getelementptr inbounds [7 x i32], ptr %4, i64 0, i64 2
  %6 = load i32, ptr %5, align 8, !tbaa !26
  ret i32 %6
}

; Function Attrs: inlinehint nounwind uwtable
define internal i64 @Abc_Clock() #3 {
  %1 = alloca i64, align 8
  %2 = alloca %struct.timespec, align 8
  %3 = alloca i32, align 4
  %4 = alloca i64, align 8
  call void @llvm.lifetime.start.p0(i64 16, ptr %2) #12
  %5 = call i32 @clock_gettime(i32 noundef 1, ptr noundef %2) #12
  %6 = icmp slt i32 %5, 0
  br i1 %6, label %7, label %8

7:                                                ; preds = %0
  store i64 -1, ptr %1, align 8
  store i32 1, ptr %3, align 4
  br label %19

8:                                                ; preds = %0
  call void @llvm.lifetime.start.p0(i64 8, ptr %4) #12
  %9 = getelementptr inbounds nuw %struct.timespec, ptr %2, i32 0, i32 0
  %10 = load i64, ptr %9, align 8, !tbaa !165
  %11 = mul nsw i64 %10, 1000000
  store i64 %11, ptr %4, align 8, !tbaa !8
  %12 = getelementptr inbounds nuw %struct.timespec, ptr %2, i32 0, i32 1
  %13 = load i64, ptr %12, align 8, !tbaa !167
  %14 = mul nsw i64 %13, 1000000
  %15 = sdiv i64 %14, 1000000000
  %16 = load i64, ptr %4, align 8, !tbaa !8
  %17 = add nsw i64 %16, %15
  store i64 %17, ptr %4, align 8, !tbaa !8
  %18 = load i64, ptr %4, align 8, !tbaa !8
  store i64 %18, ptr %1, align 8
  store i32 1, ptr %3, align 4
  call void @llvm.lifetime.end.p0(i64 8, ptr %4) #12
  br label %19

19:                                               ; preds = %8, %7
  call void @llvm.lifetime.end.p0(i64 16, ptr %2) #12
  %20 = load i64, ptr %1, align 8
  ret i64 %20
}

; Function Attrs: nounwind uwtable
define void @Fra_FraigInductionRewrite(ptr noundef %0) #0 {
  %2 = alloca ptr, align 8
  %3 = alloca ptr, align 8
  %4 = alloca ptr, align 8
  %5 = alloca ptr, align 8
  %6 = alloca i32, align 4
  %7 = alloca i32, align 4
  %8 = alloca i32, align 4
  %9 = alloca i64, align 8
  store ptr %0, ptr %2, align 8, !tbaa !3
  call void @llvm.lifetime.start.p0(i64 8, ptr %3) #12
  call void @llvm.lifetime.start.p0(i64 8, ptr %4) #12
  call void @llvm.lifetime.start.p0(i64 8, ptr %5) #12
  call void @llvm.lifetime.start.p0(i64 4, ptr %6) #12
  call void @llvm.lifetime.start.p0(i64 4, ptr %7) #12
  call void @llvm.lifetime.start.p0(i64 4, ptr %8) #12
  call void @llvm.lifetime.start.p0(i64 8, ptr %9) #12
  %10 = call i64 @Abc_Clock()
  store i64 %10, ptr %9, align 8, !tbaa !8
  %11 = load ptr, ptr %2, align 8, !tbaa !3
  %12 = getelementptr inbounds nuw %struct.Fra_Man_t_, ptr %11, i32 0, i32 2
  %13 = load ptr, ptr %12, align 8, !tbaa !10
  %14 = call ptr @Dar_ManRewriteDefault(ptr noundef %13)
  store ptr %14, ptr %3, align 8, !tbaa !24
  %15 = load ptr, ptr %2, align 8, !tbaa !3
  %16 = getelementptr inbounds nuw %struct.Fra_Man_t_, ptr %15, i32 0, i32 1
  %17 = load ptr, ptr %16, align 8, !tbaa !25
  %18 = call i32 @Aig_ManCiNum(ptr noundef %17)
  %19 = load ptr, ptr %2, align 8, !tbaa !3
  %20 = getelementptr inbounds nuw %struct.Fra_Man_t_, ptr %19, i32 0, i32 1
  %21 = load ptr, ptr %20, align 8, !tbaa !25
  %22 = call i32 @Aig_ManRegNum(ptr noundef %21)
  %23 = sub nsw i32 %18, %22
  store i32 %23, ptr %6, align 4, !tbaa !26
  %24 = load ptr, ptr %2, align 8, !tbaa !3
  %25 = getelementptr inbounds nuw %struct.Fra_Man_t_, ptr %24, i32 0, i32 4
  %26 = load ptr, ptr %25, align 8, !tbaa !27
  %27 = load ptr, ptr %2, align 8, !tbaa !3
  %28 = getelementptr inbounds nuw %struct.Fra_Man_t_, ptr %27, i32 0, i32 5
  %29 = load i32, ptr %28, align 8, !tbaa !28
  %30 = sext i32 %29 to i64
  %31 = mul i64 8, %30
  %32 = load ptr, ptr %2, align 8, !tbaa !3
  %33 = getelementptr inbounds nuw %struct.Fra_Man_t_, ptr %32, i32 0, i32 3
  %34 = load i32, ptr %33, align 8, !tbaa !29
  %35 = sext i32 %34 to i64
  %36 = mul i64 %31, %35
  call void @llvm.memset.p0.i64(ptr align 8 %26, i8 0, i64 %36, i1 false)
  %37 = load ptr, ptr %2, align 8, !tbaa !3
  %38 = getelementptr inbounds nuw %struct.Fra_Man_t_, ptr %37, i32 0, i32 1
  %39 = load ptr, ptr %38, align 8, !tbaa !25
  %40 = call ptr @Aig_ManConst1(ptr noundef %39)
  %41 = load ptr, ptr %2, align 8, !tbaa !3
  %42 = getelementptr inbounds nuw %struct.Fra_Man_t_, ptr %41, i32 0, i32 0
  %43 = load ptr, ptr %42, align 8, !tbaa !30
  %44 = getelementptr inbounds nuw %struct.Fra_Par_t_, ptr %43, i32 0, i32 16
  %45 = load i32, ptr %44, align 8, !tbaa !31
  %46 = load ptr, ptr %3, align 8, !tbaa !24
  %47 = call ptr @Aig_ManConst1(ptr noundef %46)
  call void @Fra_ObjSetFraig(ptr noundef %40, i32 noundef %45, ptr noundef %47)
  store i32 0, ptr %8, align 4, !tbaa !26
  br label %48

48:                                               ; preds = %88, %1
  %49 = load i32, ptr %8, align 4, !tbaa !26
  %50 = load ptr, ptr %2, align 8, !tbaa !3
  %51 = getelementptr inbounds nuw %struct.Fra_Man_t_, ptr %50, i32 0, i32 1
  %52 = load ptr, ptr %51, align 8, !tbaa !25
  %53 = call i32 @Aig_ManCiNum(ptr noundef %52)
  %54 = load ptr, ptr %2, align 8, !tbaa !3
  %55 = getelementptr inbounds nuw %struct.Fra_Man_t_, ptr %54, i32 0, i32 1
  %56 = load ptr, ptr %55, align 8, !tbaa !25
  %57 = call i32 @Aig_ManRegNum(ptr noundef %56)
  %58 = sub nsw i32 %53, %57
  %59 = icmp slt i32 %49, %58
  br i1 %59, label %60, label %68

60:                                               ; preds = %48
  %61 = load ptr, ptr %2, align 8, !tbaa !3
  %62 = getelementptr inbounds nuw %struct.Fra_Man_t_, ptr %61, i32 0, i32 1
  %63 = load ptr, ptr %62, align 8, !tbaa !25
  %64 = getelementptr inbounds nuw %struct.Aig_Man_t_, ptr %63, i32 0, i32 2
  %65 = load ptr, ptr %64, align 8, !tbaa !34
  %66 = load i32, ptr %8, align 4, !tbaa !26
  %67 = call ptr @Vec_PtrEntry(ptr noundef %65, i32 noundef %66)
  store ptr %67, ptr %4, align 8, !tbaa !42
  br label %68

68:                                               ; preds = %60, %48
  %69 = phi i1 [ false, %48 ], [ true, %60 ]
  br i1 %69, label %70, label %91

70:                                               ; preds = %68
  %71 = load ptr, ptr %4, align 8, !tbaa !42
  %72 = load ptr, ptr %2, align 8, !tbaa !3
  %73 = getelementptr inbounds nuw %struct.Fra_Man_t_, ptr %72, i32 0, i32 0
  %74 = load ptr, ptr %73, align 8, !tbaa !30
  %75 = getelementptr inbounds nuw %struct.Fra_Par_t_, ptr %74, i32 0, i32 16
  %76 = load i32, ptr %75, align 8, !tbaa !31
  %77 = load ptr, ptr %3, align 8, !tbaa !24
  %78 = load i32, ptr %6, align 4, !tbaa !26
  %79 = load ptr, ptr %2, align 8, !tbaa !3
  %80 = getelementptr inbounds nuw %struct.Fra_Man_t_, ptr %79, i32 0, i32 0
  %81 = load ptr, ptr %80, align 8, !tbaa !30
  %82 = getelementptr inbounds nuw %struct.Fra_Par_t_, ptr %81, i32 0, i32 16
  %83 = load i32, ptr %82, align 8, !tbaa !31
  %84 = mul nsw i32 %78, %83
  %85 = load i32, ptr %8, align 4, !tbaa !26
  %86 = add nsw i32 %84, %85
  %87 = call ptr @Aig_ManCi(ptr noundef %77, i32 noundef %86)
  call void @Fra_ObjSetFraig(ptr noundef %71, i32 noundef %76, ptr noundef %87)
  br label %88

88:                                               ; preds = %70
  %89 = load i32, ptr %8, align 4, !tbaa !26
  %90 = add nsw i32 %89, 1
  store i32 %90, ptr %8, align 4, !tbaa !26
  br label %48, !llvm.loop !43

91:                                               ; preds = %68
  store i32 0, ptr %7, align 4, !tbaa !26
  %92 = load ptr, ptr %2, align 8, !tbaa !3
  %93 = getelementptr inbounds nuw %struct.Fra_Man_t_, ptr %92, i32 0, i32 1
  %94 = load ptr, ptr %93, align 8, !tbaa !25
  %95 = call i32 @Aig_ManCiNum(ptr noundef %94)
  %96 = load ptr, ptr %2, align 8, !tbaa !3
  %97 = getelementptr inbounds nuw %struct.Fra_Man_t_, ptr %96, i32 0, i32 1
  %98 = load ptr, ptr %97, align 8, !tbaa !25
  %99 = call i32 @Aig_ManRegNum(ptr noundef %98)
  %100 = sub nsw i32 %95, %99
  store i32 %100, ptr %8, align 4, !tbaa !26
  br label %101

101:                                              ; preds = %137, %91
  %102 = load i32, ptr %8, align 4, !tbaa !26
  %103 = load ptr, ptr %2, align 8, !tbaa !3
  %104 = getelementptr inbounds nuw %struct.Fra_Man_t_, ptr %103, i32 0, i32 1
  %105 = load ptr, ptr %104, align 8, !tbaa !25
  %106 = getelementptr inbounds nuw %struct.Aig_Man_t_, ptr %105, i32 0, i32 2
  %107 = load ptr, ptr %106, align 8, !tbaa !34
  %108 = call i32 @Vec_PtrSize(ptr noundef %107)
  %109 = icmp slt i32 %102, %108
  br i1 %109, label %110, label %118

110:                                              ; preds = %101
  %111 = load ptr, ptr %2, align 8, !tbaa !3
  %112 = getelementptr inbounds nuw %struct.Fra_Man_t_, ptr %111, i32 0, i32 1
  %113 = load ptr, ptr %112, align 8, !tbaa !25
  %114 = getelementptr inbounds nuw %struct.Aig_Man_t_, ptr %113, i32 0, i32 2
  %115 = load ptr, ptr %114, align 8, !tbaa !34
  %116 = load i32, ptr %8, align 4, !tbaa !26
  %117 = call ptr @Vec_PtrEntry(ptr noundef %115, i32 noundef %116)
  store ptr %117, ptr %4, align 8, !tbaa !42
  br label %118

118:                                              ; preds = %110, %101
  %119 = phi i1 [ false, %101 ], [ true, %110 ]
  br i1 %119, label %120, label %140

120:                                              ; preds = %118
  %121 = load ptr, ptr %3, align 8, !tbaa !24
  %122 = load ptr, ptr %3, align 8, !tbaa !24
  %123 = getelementptr inbounds nuw %struct.Aig_Man_t_, ptr %122, i32 0, i32 11
  %124 = load i32, ptr %123, align 4, !tbaa !45
  %125 = load i32, ptr %7, align 4, !tbaa !26
  %126 = add nsw i32 %125, 1
  store i32 %126, ptr %7, align 4, !tbaa !26
  %127 = add nsw i32 %124, %125
  %128 = call ptr @Aig_ManCo(ptr noundef %121, i32 noundef %127)
  store ptr %128, ptr %5, align 8, !tbaa !42
  %129 = load ptr, ptr %4, align 8, !tbaa !42
  %130 = load ptr, ptr %2, align 8, !tbaa !3
  %131 = getelementptr inbounds nuw %struct.Fra_Man_t_, ptr %130, i32 0, i32 0
  %132 = load ptr, ptr %131, align 8, !tbaa !30
  %133 = getelementptr inbounds nuw %struct.Fra_Par_t_, ptr %132, i32 0, i32 16
  %134 = load i32, ptr %133, align 8, !tbaa !31
  %135 = load ptr, ptr %5, align 8, !tbaa !42
  %136 = call ptr @Aig_ObjChild0(ptr noundef %135)
  call void @Fra_ObjSetFraig(ptr noundef %129, i32 noundef %134, ptr noundef %136)
  br label %137

137:                                              ; preds = %120
  %138 = load i32, ptr %8, align 4, !tbaa !26
  %139 = add nsw i32 %138, 1
  store i32 %139, ptr %8, align 4, !tbaa !26
  br label %101, !llvm.loop !46

140:                                              ; preds = %118
  %141 = load ptr, ptr %2, align 8, !tbaa !3
  %142 = getelementptr inbounds nuw %struct.Fra_Man_t_, ptr %141, i32 0, i32 2
  %143 = load ptr, ptr %142, align 8, !tbaa !10
  call void @Aig_ManStop(ptr noundef %143)
  %144 = load ptr, ptr %3, align 8, !tbaa !24
  %145 = load ptr, ptr %2, align 8, !tbaa !3
  %146 = getelementptr inbounds nuw %struct.Fra_Man_t_, ptr %145, i32 0, i32 2
  store ptr %144, ptr %146, align 8, !tbaa !10
  %147 = call i64 @Abc_Clock()
  %148 = load i64, ptr %9, align 8, !tbaa !8
  %149 = sub nsw i64 %147, %148
  %150 = load ptr, ptr %2, align 8, !tbaa !3
  %151 = getelementptr inbounds nuw %struct.Fra_Man_t_, ptr %150, i32 0, i32 43
  %152 = load i64, ptr %151, align 8, !tbaa !47
  %153 = add nsw i64 %152, %149
  store i64 %153, ptr %151, align 8, !tbaa !47
  call void @llvm.lifetime.end.p0(i64 8, ptr %9) #12
  call void @llvm.lifetime.end.p0(i64 4, ptr %8) #12
  call void @llvm.lifetime.end.p0(i64 4, ptr %7) #12
  call void @llvm.lifetime.end.p0(i64 4, ptr %6) #12
  call void @llvm.lifetime.end.p0(i64 8, ptr %5) #12
  call void @llvm.lifetime.end.p0(i64 8, ptr %4) #12
  call void @llvm.lifetime.end.p0(i64 8, ptr %3) #12
  ret void
}