; Function Attrs: nounwind uwtable
define void @Fra_FraigInductionRewrite(ptr noundef captures(none) %0) local_unnamed_addr #0 {
  %2 = alloca %struct.timespec, align 8
  %3 = alloca %struct.timespec, align 8
  call void @llvm.lifetime.start.p0(i64 16, ptr nonnull %3) #16
  %4 = call i32 @clock_gettime(i32 noundef 1, ptr noundef nonnull %3) #16
  %5 = icmp slt i32 %4, 0
  br i1 %5, label %Abc_Clock.exit, label %6

6:                                                ; preds = %1
  %7 = load i64, ptr %3, align 8, !tbaa !3
  %.neg65 = mul i64 %7, -1000000
  %8 = getelementptr inbounds nuw i8, ptr %3, i64 8
  %9 = load i64, ptr %8, align 8, !tbaa !8
  %.neg = sdiv i64 %9, -1000
  %.neg66 = add i64 %.neg, %.neg65
  br label %Abc_Clock.exit

Abc_Clock.exit:                                   ; preds = %1, %6
  %.0.i.neg = phi i64 [ %.neg66, %6 ], [ 1, %1 ]
  call void @llvm.lifetime.end.p0(i64 16, ptr nonnull %3) #16
  %10 = getelementptr inbounds nuw i8, ptr %0, i64 16
  %11 = load ptr, ptr %10, align 8, !tbaa !9
  %12 = call ptr @Dar_ManRewriteDefault(ptr noundef %11) #16
  %13 = getelementptr inbounds nuw i8, ptr %0, i64 8
  %14 = load ptr, ptr %13, align 8, !tbaa !24
  %15 = getelementptr i8, ptr %14, i64 136
  %.val = load i32, ptr %15, align 8, !tbaa !25
  %16 = getelementptr i8, ptr %14, i64 104
  %.val43 = load i32, ptr %16, align 8, !tbaa !26
  %17 = getelementptr inbounds nuw i8, ptr %0, i64 32
  %18 = load ptr, ptr %17, align 8, !tbaa !34
  %19 = getelementptr inbounds nuw i8, ptr %0, i64 40
  %20 = load i32, ptr %19, align 8, !tbaa !35
  %21 = sext i32 %20 to i64
  %22 = shl nsw i64 %21, 3
  %23 = getelementptr inbounds nuw i8, ptr %0, i64 24
  %24 = load i32, ptr %23, align 8, !tbaa !36
  %25 = sext i32 %24 to i64
  %26 = mul i64 %22, %25
  call void @llvm.memset.p0.i64(ptr align 8 %18, i8 0, i64 %26, i1 false)
  %27 = load ptr, ptr %13, align 8, !tbaa !24
  %28 = getelementptr i8, ptr %27, i64 48
  %.val46 = load ptr, ptr %28, align 8, !tbaa !37
  %29 = load ptr, ptr %0, align 8, !tbaa !38
  %30 = getelementptr inbounds nuw i8, ptr %29, i64 80
  %31 = load i32, ptr %30, align 8, !tbaa !39
  %32 = getelementptr i8, ptr %12, i64 48
  %.val47 = load ptr, ptr %32, align 8, !tbaa !37
  %33 = getelementptr i8, ptr %.val46, i64 36
  %.val48 = load i32, ptr %33, align 4, !tbaa !42
  %34 = getelementptr i8, ptr %.val46, i64 40
  %.val49 = load ptr, ptr %34, align 8, !tbaa !43
  %35 = getelementptr i8, ptr %.val49, i64 24
  %.val49.val = load i32, ptr %35, align 8, !tbaa !36
  %36 = getelementptr i8, ptr %.val49, i64 32
  %.val49.val56 = load ptr, ptr %36, align 8, !tbaa !34
  %37 = mul nsw i32 %.val49.val, %.val48
  %38 = add nsw i32 %37, %31
  %39 = sext i32 %38 to i64
  %40 = getelementptr inbounds ptr, ptr %.val49.val56, i64 %39
  store ptr %.val47, ptr %40, align 8, !tbaa !44
  %41 = getelementptr i8, ptr %27, i64 136
  %.val41 = load i32, ptr %41, align 8, !tbaa !25
  %42 = getelementptr i8, ptr %27, i64 104
  %.val44 = load i32, ptr %42, align 8, !tbaa !26
  %43 = sub nsw i32 %.val41, %.val44
  %44 = icmp sgt i32 %43, 0
  br i1 %44, label %.lr.ph, label %Abc_Clock.exit..critedge.preheader_crit_edge

Abc_Clock.exit..critedge.preheader_crit_edge:     ; preds = %Abc_Clock.exit
  %.phi.trans.insert = getelementptr inbounds nuw i8, ptr %27, i64 16
  %.pre = load ptr, ptr %.phi.trans.insert, align 8, !tbaa !45
  br label %.critedge.preheader

.lr.ph:                                           ; preds = %Abc_Clock.exit
  %45 = sub nsw i32 %.val, %.val43
  %46 = getelementptr inbounds nuw i8, ptr %27, i64 16
  %47 = load ptr, ptr %46, align 8, !tbaa !45
  %48 = getelementptr i8, ptr %47, i64 8
  %.val57 = load ptr, ptr %48, align 8, !tbaa !46
  %49 = mul nsw i32 %31, %45
  %50 = getelementptr i8, ptr %12, i64 16
  %.val59 = load ptr, ptr %50, align 8, !tbaa !45
  %51 = getelementptr i8, ptr %.val59, i64 8
  %.val59.val = load ptr, ptr %51, align 8, !tbaa !46
  %52 = sext i32 %49 to i64
  %wide.trip.count = zext nneg i32 %43 to i64
  %invariant.gep = getelementptr ptr, ptr %.val59.val, i64 %52
  br label %65

.critedge.preheader:                              ; preds = %65, %Abc_Clock.exit..critedge.preheader_crit_edge
  %53 = phi ptr [ %.pre, %Abc_Clock.exit..critedge.preheader_crit_edge ], [ %47, %65 ]
  %54 = getelementptr i8, ptr %53, i64 4
  %.val60 = load i32, ptr %54, align 4, !tbaa !48
  %55 = icmp slt i32 %43, %.val60
  br i1 %55, label %.lr.ph70, label %.critedge2

.lr.ph70:                                         ; preds = %.critedge.preheader
  %56 = getelementptr i8, ptr %53, i64 8
  %.val58 = load ptr, ptr %56, align 8, !tbaa !46
  %57 = getelementptr inbounds nuw i8, ptr %12, i64 116
  %58 = load i32, ptr %57, align 4, !tbaa !49
  %59 = getelementptr i8, ptr %12, i64 24
  %.val61 = load ptr, ptr %59, align 8, !tbaa !50
  %60 = getelementptr i8, ptr %.val61, i64 8
  %.val61.val = load ptr, ptr %60, align 8, !tbaa !46
  %61 = sext i32 %43 to i64
  %62 = sext i32 %58 to i64
  %63 = add i32 %.val44, %.val60
  %64 = sub i32 %63, %.val41
  %wide.trip.count79 = zext i32 %64 to i64
  %invariant.gep81 = getelementptr ptr, ptr %.val61.val, i64 %62
  br label %.critedge

65:                                               ; preds = %.lr.ph, %65
  %indvars.iv = phi i64 [ 0, %.lr.ph ], [ %indvars.iv.next, %65 ]
  %66 = getelementptr inbounds nuw ptr, ptr %.val57, i64 %indvars.iv
  %67 = load ptr, ptr %66, align 8, !tbaa !51
  %gep = getelementptr ptr, ptr %invariant.gep, i64 %indvars.iv
  %68 = load ptr, ptr %gep, align 8, !tbaa !51
  %69 = getelementptr i8, ptr %67, i64 36
  %.val50 = load i32, ptr %69, align 4, !tbaa !42
  %70 = getelementptr i8, ptr %67, i64 40
  %.val51 = load ptr, ptr %70, align 8, !tbaa !43
  %71 = getelementptr i8, ptr %.val51, i64 24
  %.val51.val = load i32, ptr %71, align 8, !tbaa !36
  %72 = getelementptr i8, ptr %.val51, i64 32
  %.val51.val55 = load ptr, ptr %72, align 8, !tbaa !34
  %73 = mul nsw i32 %.val51.val, %.val50
  %74 = add nsw i32 %73, %31
  %75 = sext i32 %74 to i64
  %76 = getelementptr inbounds ptr, ptr %.val51.val55, i64 %75
  store ptr %68, ptr %76, align 8, !tbaa !44
  %indvars.iv.next = add nuw nsw i64 %indvars.iv, 1
  %exitcond.not = icmp eq i64 %indvars.iv.next, %wide.trip.count
  br i1 %exitcond.not, label %.critedge.preheader, label %65, !llvm.loop !52

.critedge:                                        ; preds = %.lr.ph70, %.critedge
  %indvars.iv74 = phi i64 [ 0, %.lr.ph70 ], [ %indvars.iv.next75, %.critedge ]
  %indvars.iv72 = phi i64 [ %61, %.lr.ph70 ], [ %indvars.iv.next73, %.critedge ]
  %77 = getelementptr inbounds ptr, ptr %.val58, i64 %indvars.iv72
  %78 = load ptr, ptr %77, align 8, !tbaa !51
  %indvars.iv.next75 = add nuw nsw i64 %indvars.iv74, 1
  %gep82 = getelementptr ptr, ptr %invariant.gep81, i64 %indvars.iv74
  %79 = load ptr, ptr %gep82, align 8, !tbaa !51
  %80 = getelementptr i8, ptr %79, i64 8
  %.val62 = load ptr, ptr %80, align 8, !tbaa !54
  %81 = getelementptr i8, ptr %78, i64 36
  %.val52 = load i32, ptr %81, align 4, !tbaa !42
  %82 = getelementptr i8, ptr %78, i64 40
  %.val53 = load ptr, ptr %82, align 8, !tbaa !43
  %83 = getelementptr i8, ptr %.val53, i64 24
  %.val53.val = load i32, ptr %83, align 8, !tbaa !36
  %84 = getelementptr i8, ptr %.val53, i64 32
  %.val53.val54 = load ptr, ptr %84, align 8, !tbaa !34
  %85 = mul nsw i32 %.val53.val, %.val52
  %86 = add nsw i32 %85, %31
  %87 = sext i32 %86 to i64
  %88 = getelementptr inbounds ptr, ptr %.val53.val54, i64 %87
  store ptr %.val62, ptr %88, align 8, !tbaa !44
  %indvars.iv.next73 = add nsw i64 %indvars.iv72, 1
  %exitcond80.not = icmp eq i64 %indvars.iv.next75, %wide.trip.count79
  br i1 %exitcond80.not, label %.critedge2, label %.critedge, !llvm.loop !55

.critedge2:                                       ; preds = %.critedge, %.critedge.preheader
  %89 = load ptr, ptr %10, align 8, !tbaa !9
  call void @Aig_ManStop(ptr noundef %89) #16
  store ptr %12, ptr %10, align 8, !tbaa !9
  call void @llvm.lifetime.start.p0(i64 16, ptr nonnull %2) #16
  %90 = call i32 @clock_gettime(i32 noundef 1, ptr noundef nonnull %2) #16
  %91 = icmp slt i32 %90, 0
  br i1 %91, label %Abc_Clock.exit64, label %92

92:                                               ; preds = %.critedge2
  %93 = load i64, ptr %2, align 8, !tbaa !3
  %94 = mul nsw i64 %93, 1000000
  %95 = getelementptr inbounds nuw i8, ptr %2, i64 8
  %96 = load i64, ptr %95, align 8, !tbaa !8
  %97 = sdiv i64 %96, 1000
  %98 = add nsw i64 %97, %94
  br label %Abc_Clock.exit64

Abc_Clock.exit64:                                 ; preds = %.critedge2, %92
  %.0.i63 = phi i64 [ %98, %92 ], [ -1, %.critedge2 ]
  call void @llvm.lifetime.end.p0(i64 16, ptr nonnull %2) #16
  %99 = add i64 %.0.i63, %.0.i.neg
  %100 = getelementptr inbounds nuw i8, ptr %0, i64 272
  %101 = load i64, ptr %100, align 8, !tbaa !56
  %102 = add nsw i64 %99, %101
  store i64 %102, ptr %100, align 8, !tbaa !56
  ret void
}